; Function Attrs: nounwind sspstrong uwtable
define internal fastcc noundef i64 @ast_new_internal(i64 noundef %0, ptr noundef nonnull %1) unnamed_addr #0 {
  %3 = load i64, ptr @rb_cNode, align 8, !tbaa !47
  %4 = tail call i64 @rb_data_typed_object_zalloc(i64 noundef %3, i64 noundef 16, ptr noundef nonnull @rb_node_type) #11
  %5 = tail call ptr @rb_check_typeddata(i64 noundef %4, ptr noundef nonnull @rb_node_type) #11
  store i64 %0, ptr %5, align 8, !tbaa !70
  %6 = getelementptr inbounds nuw i8, ptr %5, i64 8
  store ptr %1, ptr %6, align 8, !tbaa !72
  ret i64 %4
}